target datalayout = "e-m:e-p270:32:32-p271:32:32-p272:64:64-i64:64-i128:128-f80:128-n8:16:32:64-S128"
target triple = "x86_64-pc-linux-gnu"

; Function Attrs: nounwind uwtable
define internal void @pred8x16_vertical_12_c(ptr noundef %0, i64 noundef %1) #1 {
  %3 = alloca ptr, align 8
  %4 = alloca i64, align 8
  %5 = alloca i32, align 4
  %6 = alloca ptr, align 8
  %7 = alloca i32, align 4
  %8 = alloca i64, align 8
  %9 = alloca i64, align 8
  store ptr %0, ptr %3, align 8, !tbaa !12
  store i64 %1, ptr %4, align 8, !tbaa !14
  call void @llvm.lifetime.start.p0(i64 4, ptr %5) #9
  call void @llvm.lifetime.start.p0(i64 8, ptr %6) #9
  %10 = load ptr, ptr %3, align 8, !tbaa !12
  store ptr %10, ptr %6, align 8, !tbaa !16
  call void @llvm.lifetime.start.p0(i64 4, ptr %7) #9
  %11 = load i64, ptr %4, align 8, !tbaa !14
  %12 = ashr i64 %11, 1
  %13 = trunc i64 %12 to i32
  store i32 %13, ptr %7, align 4, !tbaa !9
  call void @llvm.lifetime.start.p0(i64 8, ptr %8) #9
  %14 = load ptr, ptr %6, align 8, !tbaa !16
  %15 = load i32, ptr %7, align 4, !tbaa !9
  %16 = sext i32 %15 to i64
  %17 = sub i64 0, %16
  %18 = getelementptr inbounds i16, ptr %14, i64 %17
  %19 = getelementptr inbounds i64, ptr %18, i64 0
  %20 = load i64, ptr %19, align 8, !tbaa !18
  store i64 %20, ptr %8, align 8, !tbaa !14
  call void @llvm.lifetime.start.p0(i64 8, ptr %9) #9
  %21 = load ptr, ptr %6, align 8, !tbaa !16
  %22 = load i32, ptr %7, align 4, !tbaa !9
  %23 = sext i32 %22 to i64
  %24 = sub i64 0, %23
  %25 = getelementptr inbounds i16, ptr %21, i64 %24
  %26 = getelementptr inbounds i64, ptr %25, i64 1
  %27 = load i64, ptr %26, align 8, !tbaa !18
  store i64 %27, ptr %9, align 8, !tbaa !14
  store i32 0, ptr %5, align 4, !tbaa !9
  br label %28

28:                                               ; preds = %48, %2
  %29 = load i32, ptr %5, align 4, !tbaa !9
  %30 = icmp slt i32 %29, 16
  br i1 %30, label %31, label %51

31:                                               ; preds = %28
  %32 = load i64, ptr %8, align 8, !tbaa !14
  %33 = load ptr, ptr %6, align 8, !tbaa !16
  %34 = load i32, ptr %5, align 4, !tbaa !9
  %35 = load i32, ptr %7, align 4, !tbaa !9
  %36 = mul nsw i32 %34, %35
  %37 = sext i32 %36 to i64
  %38 = getelementptr inbounds i16, ptr %33, i64 %37
  %39 = getelementptr inbounds i64, ptr %38, i64 0
  store i64 %32, ptr %39, align 8, !tbaa !18
  %40 = load i64, ptr %9, align 8, !tbaa !14
  %41 = load ptr, ptr %6, align 8, !tbaa !16
  %42 = load i32, ptr %5, align 4, !tbaa !9
  %43 = load i32, ptr %7, align 4, !tbaa !9
  %44 = mul nsw i32 %42, %43
  %45 = sext i32 %44 to i64
  %46 = getelementptr inbounds i16, ptr %41, i64 %45
  %47 = getelementptr inbounds i64, ptr %46, i64 1
  store i64 %40, ptr %47, align 8, !tbaa !18
  br label %48

48:                                               ; preds = %31
  %49 = load i32, ptr %5, align 4, !tbaa !9
  %50 = add nsw i32 %49, 1
  store i32 %50, ptr %5, align 4, !tbaa !9
  br label %28, !llvm.loop !143

51:                                               ; preds = %28
  call void @llvm.lifetime.end.p0(i64 8, ptr %9) #9
  call void @llvm.lifetime.end.p0(i64 8, ptr %8) #9
  call void @llvm.lifetime.end.p0(i64 4, ptr %7) #9
  call void @llvm.lifetime.end.p0(i64 8, ptr %6) #9
  call void @llvm.lifetime.end.p0(i64 4, ptr %5) #9
  ret void
}