; Function Attrs: nofree norecurse nosync nounwind memory(argmem: readwrite) uwtable
define internal void @pred8x16_vertical_12_c(ptr noundef captures(none) %0, i64 noundef %1) #3 {
  %3 = lshr i64 %1, 1
  %sext = shl i64 %3, 32
  %4 = ashr exact i64 %sext, 32
  %5 = sub nsw i64 0, %4
  %6 = getelementptr inbounds i16, ptr %0, i64 %5
  %7 = load i64, ptr %6, align 8, !tbaa !8
  %8 = getelementptr inbounds nuw i8, ptr %6, i64 8
  %9 = load i64, ptr %8, align 8, !tbaa !8
  %sext17 = shl i64 %3, 32
  %10 = ashr exact i64 %sext17, 32
  br label %11

11:                                               ; preds = %2, %11
  %indvars.iv = phi i64 [ 0, %2 ], [ %indvars.iv.next, %11 ]
  %12 = mul nsw i64 %indvars.iv, %10
  %13 = getelementptr inbounds i16, ptr %0, i64 %12
  store i64 %7, ptr %13, align 8, !tbaa !8
  %14 = getelementptr inbounds nuw i8, ptr %13, i64 8
  store i64 %9, ptr %14, align 8, !tbaa !8
  %indvars.iv.next = add nuw nsw i64 %indvars.iv, 1
  %exitcond.not = icmp eq i64 %indvars.iv.next, 16
  br i1 %exitcond.not, label %15, label %11, !llvm.loop !139

15:                                               ; preds = %11
  ret void
}